target datalayout = "e-m:e-p270:32:32-p271:32:32-p272:64:64-i64:64-i128:128-f80:128-n8:16:32:64-S128"
target triple = "x86_64-pc-linux-gnu"

%struct.hashmap_entry = type { ptr, i32 }
%struct.pool_entry = type { %struct.hashmap_entry, i64, [0 x i8] }

; Function Attrs: nounwind uwtable
define internal i32 @pool_entry_cmp(ptr noundef %0, ptr noundef %1, ptr noundef %2, ptr noundef %3) #0 {
  %5 = alloca ptr, align 8
  %6 = alloca ptr, align 8
  %7 = alloca ptr, align 8
  %8 = alloca ptr, align 8
  %9 = alloca ptr, align 8
  %10 = alloca ptr, align 8
  store ptr %0, ptr %5, align 8, !tbaa !15
  store ptr %1, ptr %6, align 8, !tbaa !29
  store ptr %2, ptr %7, align 8, !tbaa !29
  store ptr %3, ptr %8, align 8, !tbaa !15
  call void @llvm.lifetime.start.p0(i64 8, ptr %9) #9
  call void @llvm.lifetime.start.p0(i64 8, ptr %10) #9
  %11 = load ptr, ptr %6, align 8, !tbaa !29
  %12 = getelementptr inbounds i8, ptr %11, i64 0
  store ptr %12, ptr %9, align 8, !tbaa !50
  %13 = load ptr, ptr %7, align 8, !tbaa !29
  %14 = getelementptr inbounds i8, ptr %13, i64 0
  store ptr %14, ptr %10, align 8, !tbaa !50
  %15 = load ptr, ptr %9, align 8, !tbaa !50
  %16 = getelementptr inbounds nuw %struct.pool_entry, ptr %15, i32 0, i32 2
  %17 = getelementptr inbounds [0 x i8], ptr %16, i64 0, i64 0
  %18 = load ptr, ptr %8, align 8, !tbaa !15
  %19 = icmp ne ptr %17, %18
  br i1 %19, label %20, label %40

20:                                               ; preds = %4
  %21 = load ptr, ptr %9, align 8, !tbaa !50
  %22 = getelementptr inbounds nuw %struct.pool_entry, ptr %21, i32 0, i32 1
  %23 = load i64, ptr %22, align 8, !tbaa !16
  %24 = load ptr, ptr %10, align 8, !tbaa !50
  %25 = getelementptr inbounds nuw %struct.pool_entry, ptr %24, i32 0, i32 1
  %26 = load i64, ptr %25, align 8, !tbaa !16
  %27 = icmp ne i64 %23, %26
  br i1 %27, label %38, label %28

28:                                               ; preds = %20
  %29 = load ptr, ptr %9, align 8, !tbaa !50
  %30 = getelementptr inbounds nuw %struct.pool_entry, ptr %29, i32 0, i32 2
  %31 = getelementptr inbounds [0 x i8], ptr %30, i64 0, i64 0
  %32 = load ptr, ptr %8, align 8, !tbaa !15
  %33 = load ptr, ptr %9, align 8, !tbaa !50
  %34 = getelementptr inbounds nuw %struct.pool_entry, ptr %33, i32 0, i32 1
  %35 = load i64, ptr %34, align 8, !tbaa !16
  %36 = call i32 @memcmp(ptr noundef %31, ptr noundef %32, i64 noundef %35) #10
  %37 = icmp ne i32 %36, 0
  br label %38

38:                                               ; preds = %28, %20
  %39 = phi i1 [ true, %20 ], [ %37, %28 ]
  br label %40

40:                                               ; preds = %38, %4
  %41 = phi i1 [ false, %4 ], [ %39, %38 ]
  %42 = zext i1 %41 to i32
  call void @llvm.lifetime.end.p0(i64 8, ptr %10) #9
  call void @llvm.lifetime.end.p0(i64 8, ptr %9) #9
  ret i32 %42
}