; Function Attrs: mustprogress nofree nounwind willreturn memory(argmem: read) uwtable
define internal range(i32 0, 2) i32 @pool_entry_cmp(ptr readnone captures(none) %0, ptr noundef readonly %1, ptr noundef readonly captures(none) %2, ptr noundef readonly %3) #9 {
  %5 = getelementptr inbounds nuw i8, ptr %1, i64 24
  %.not = icmp eq ptr %5, %3
  br i1 %.not, label %14, label %6

6:                                                ; preds = %4
  %7 = getelementptr inbounds nuw i8, ptr %1, i64 16
  %8 = load i64, ptr %7, align 8, !tbaa !40
  %9 = getelementptr inbounds nuw i8, ptr %2, i64 16
  %10 = load i64, ptr %9, align 8, !tbaa !40
  %.not11 = icmp eq i64 %8, %10
  br i1 %.not11, label %11, label %14

11:                                               ; preds = %6
  %bcmp = tail call i32 @bcmp(ptr nonnull %5, ptr %3, i64 %8)
  %12 = icmp ne i32 %bcmp, 0
  %13 = zext i1 %12 to i32
  br label %14

14:                                               ; preds = %6, %11, %4
  %15 = phi i32 [ 0, %4 ], [ 1, %6 ], [ %13, %11 ]
  ret i32 %15
}